; Function Attrs: mustprogress nofree norecurse nosync nounwind willreturn memory(argmem: write) uwtable
define void @_ZN10OpenSubdiv6v3_6_03Bfr19SurfaceFactoryCacheC2Ev(ptr noundef nonnull align 8 dereferenceable(56) initializes((0, 32)) %0) unnamed_addr #3 align 2 personality ptr @__gxx_personality_v0 {
  store ptr getelementptr inbounds nuw inrange(-16, 32) (i8, ptr @_ZTVN10OpenSubdiv6v3_6_03Bfr19SurfaceFactoryCacheE, i64 16), ptr %0, align 8
  %2 = getelementptr inbounds nuw i8, ptr %0, i64 8
  %3 = getelementptr inbounds nuw i8, ptr %0, i64 16
  %4 = getelementptr inbounds nuw i8, ptr %0, i64 32
  tail call void @llvm.memset.p0.i64(ptr noundef nonnull align 8 dereferenceable(24) %2, i8 0, i64 24, i1 false)
  store ptr %3, ptr %4, align 8
  %5 = getelementptr inbounds nuw i8, ptr %0, i64 40
  store ptr %3, ptr %5, align 8
  %6 = getelementptr inbounds nuw i8, ptr %0, i64 48
  store i64 0, ptr %6, align 8
  ret void
}